; Function Attrs: mustprogress nounwind uwtable
define dso_local noundef ptr @_ZN4llvm21emitBinaryFloatFnCallEPNS_5ValueES1_PKNS_17TargetLibraryInfoENS_7LibFuncES5_S5_RNS_13IRBuilderBaseERKNS_13AttributeListE(ptr noundef %0, ptr noundef %1, ptr noundef %2, i32 noundef %3, i32 noundef %4, i32 noundef %5, ptr noundef nonnull align 8 dereferenceable(128) %6, ptr noundef nonnull align 8 dereferenceable(8) %7) local_unnamed_addr #0 {
  %9 = getelementptr inbounds nuw i8, ptr %6, i64 48
  %10 = load ptr, ptr %9, align 8
  %11 = tail call noundef ptr @_ZNK4llvm10BasicBlock9getModuleEv(ptr noundef nonnull align 8 dereferenceable(80) %10) #7
  %12 = getelementptr inbounds nuw i8, ptr %0, i64 8
  %13 = load ptr, ptr %12, align 8
  %14 = getelementptr inbounds nuw i8, ptr %13, i64 8
  %15 = load i32, ptr %14, align 8
  %trunc.i = trunc i32 %15 to i8
  switch i8 %trunc.i, label %17 [
    i8 3, label %16
    i8 2, label %_ZN4llvm10getFloatFnEPKNS_6ModuleEPKNS_17TargetLibraryInfoEPNS_4TypeENS_7LibFuncES8_S8_RS8_.exit
  ]

16:                                               ; preds = %8
  br label %_ZN4llvm10getFloatFnEPKNS_6ModuleEPKNS_17TargetLibraryInfoEPNS_4TypeENS_7LibFuncES8_S8_RS8_.exit

17:                                               ; preds = %8
  br label %_ZN4llvm10getFloatFnEPKNS_6ModuleEPKNS_17TargetLibraryInfoEPNS_4TypeENS_7LibFuncES8_S8_RS8_.exit

_ZN4llvm10getFloatFnEPKNS_6ModuleEPKNS_17TargetLibraryInfoEPNS_4TypeENS_7LibFuncES8_S8_RS8_.exit: ; preds = %8, %16, %17
  %.sink13.i = phi i32 [ %5, %17 ], [ %3, %16 ], [ %4, %8 ]
  %18 = tail call { ptr, i64 } @_ZNK4llvm17TargetLibraryInfo7getNameENS_7LibFuncE(ptr noundef nonnull align 8 dereferenceable(72) %2, i32 noundef %.sink13.i)
  %19 = extractvalue { ptr, i64 } %18, 0
  %20 = extractvalue { ptr, i64 } %18, 1
  %21 = tail call fastcc noundef ptr @_ZL27emitBinaryFloatFnCallHelperPN4llvm5ValueES1_NS_7LibFuncENS_9StringRefERNS_13IRBuilderBaseERKNS_13AttributeListEPKNS_17TargetLibraryInfoE(ptr noundef nonnull %0, ptr noundef %1, i32 noundef %.sink13.i, ptr %19, i64 %20, ptr noundef nonnull align 8 dereferenceable(128) %6, ptr noundef nonnull align 8 dereferenceable(8) %7, ptr noundef nonnull %2)
  ret ptr %21
}